; ModuleID = 'source-C-CXX/27/1849.c'
source_filename = "source-C-CXX/27/1849.c"
target datalayout = "e-m:e-p270:32:32-p271:32:32-p272:64:64-i64:64-f80:128-n8:16:32:64-S128"
target triple = "x86_64-pc-linux-gnu"

@.str = private unnamed_addr constant [3 x i8] c"%d\00", align 1
@.str.1 = private unnamed_addr constant [4 x i8] c",%d\00", align 1

; Function Attrs: nounwind sspstrong uwtable
define dso_local i32 @main() local_unnamed_addr #0 {
  %1 = alloca [100 x i8], align 16
  %2 = getelementptr inbounds [100 x i8], [100 x i8]* %1, i64 0, i64 0
  call void @llvm.lifetime.start.p0i8(i64 100, i8* nonnull %2) #5
  %3 = call i32 (i8*, ...) bitcast (i32 (...)* @gets to i32 (i8*, ...)*)(i8* nonnull %2) #5
  %4 = call i64 @strlen(i8* noundef nonnull %2) #6
  %5 = trunc i64 %4 to i32
  %6 = icmp sgt i32 %5, 0
  br i1 %6, label %7, label %52

7:                                                ; preds = %0
  %8 = add i64 %4, 4294967295
  %9 = and i64 %8, 4294967295
  %10 = and i64 %4, 4294967295
  br label %11

11:                                               ; preds = %7, %47
  %12 = phi i64 [ 0, %7 ], [ %50, %47 ]
  %13 = phi i32 [ 0, %7 ], [ %49, %47 ]
  %14 = phi i32 [ 0, %7 ], [ %48, %47 ]
  %15 = getelementptr inbounds [100 x i8], [100 x i8]* %1, i64 0, i64 %12
  %16 = load i8, i8* %15, align 1, !tbaa !5
  %17 = icmp eq i8 %16, 32
  br i1 %17, label %20, label %18

18:                                               ; preds = %11
  %19 = add nsw i32 %14, 1
  br label %32

20:                                               ; preds = %11
  %21 = add nuw nsw i64 %12, 1
  %22 = getelementptr inbounds [100 x i8], [100 x i8]* %1, i64 0, i64 %21
  %23 = load i8, i8* %22, align 1, !tbaa !5
  %24 = icmp eq i8 %23, 32
  br i1 %24, label %47, label %25

25:                                               ; preds = %20
  %26 = add nsw i32 %13, 1
  %27 = icmp eq i32 %13, 0
  br i1 %27, label %36, label %28

28:                                               ; preds = %25
  %29 = icmp sgt i32 %13, 0
  br i1 %29, label %30, label %32

30:                                               ; preds = %28
  %31 = call i32 (i8*, ...) @printf(i8* nonnull dereferenceable(1) getelementptr inbounds ([4 x i8], [4 x i8]* @.str.1, i64 0, i64 0), i32 %14)
  br label %32

32:                                               ; preds = %30, %28, %18
  %33 = phi i32 [ %19, %18 ], [ 0, %28 ], [ 0, %30 ]
  %34 = phi i32 [ %13, %18 ], [ %26, %28 ], [ %26, %30 ]
  %35 = icmp eq i64 %12, %9
  br i1 %35, label %39, label %47

36:                                               ; preds = %25
  %37 = call i32 (i8*, ...) @printf(i8* nonnull dereferenceable(1) getelementptr inbounds ([3 x i8], [3 x i8]* @.str, i64 0, i64 0), i32 %14)
  %38 = icmp eq i64 %12, %9
  br i1 %38, label %43, label %47

39:                                               ; preds = %32
  %40 = icmp eq i32 %34, 0
  br i1 %40, label %41, label %43

41:                                               ; preds = %39
  %42 = call i32 (i8*, ...) @printf(i8* nonnull dereferenceable(1) getelementptr inbounds ([3 x i8], [3 x i8]* @.str, i64 0, i64 0), i32 %33)
  br label %47

43:                                               ; preds = %36, %39
  %44 = phi i32 [ %33, %39 ], [ 0, %36 ]
  %45 = phi i32 [ %34, %39 ], [ 1, %36 ]
  %46 = call i32 (i8*, ...) @printf(i8* nonnull dereferenceable(1) getelementptr inbounds ([4 x i8], [4 x i8]* @.str.1, i64 0, i64 0), i32 %44)
  br label %47

47:                                               ; preds = %36, %32, %43, %41, %20
  %48 = phi i32 [ %33, %41 ], [ %44, %43 ], [ %33, %32 ], [ %14, %20 ], [ 0, %36 ]
  %49 = phi i32 [ 0, %41 ], [ %45, %43 ], [ %34, %32 ], [ %13, %20 ], [ 1, %36 ]
  %50 = add nuw nsw i64 %12, 1
  %51 = icmp eq i64 %50, %10
  br i1 %51, label %52, label %11, !llvm.loop !8

52:                                               ; preds = %47, %0
  call void @llvm.lifetime.end.p0i8(i64 100, i8* nonnull %2) #5
  ret i32 0
}

; Function Attrs: argmemonly mustprogress nofree nosync nounwind willreturn
declare void @llvm.lifetime.start.p0i8(i64 immarg, i8* nocapture) #1

declare i32 @gets(...) local_unnamed_addr #2

; Function Attrs: argmemonly mustprogress nofree nounwind readonly willreturn
declare i64 @strlen(i8* nocapture) local_unnamed_addr #3

; Function Attrs: nofree nounwind
declare noundef i32 @printf(i8* nocapture noundef readonly, ...) local_unnamed_addr #4

; Function Attrs: argmemonly mustprogress nofree nosync nounwind willreturn
declare void @llvm.lifetime.end.p0i8(i64 immarg, i8* nocapture) #1


!llvm.module.flags = !{!0, !1, !2, !3}
!llvm.ident = !{!4}

!0 = !{i32 1, !"wchar_size", i32 4}
!1 = !{i32 7, !"PIC Level", i32 2}
!2 = !{i32 7, !"PIE Level", i32 2}
!3 = !{i32 7, !"uwtable", i32 1}
!4 = !{!"clang version 13.0.0"}
!5 = !{!6, !6, i64 0}
!6 = !{!"omnipotent char", !7, i64 0}
!7 = !{!"Simple C/C++ TBAA"}
!8 = distinct !{!8, !9}
!9 = !{!"llvm.loop.mustprogress"}
